target datalayout = "e-m:e-p270:32:32-p271:32:32-p272:64:64-i64:64-i128:128-f80:128-n8:16:32:64-S128"
target triple = "x86_64-pc-linux-gnu"

%struct._zval_struct = type { %union._zend_value, %union.anon, %union.anon.2 }
%union._zend_value = type { i64 }
%union.anon = type { i32 }
%union.anon.2 = type { i32 }
%struct._zend_refcounted_h = type { i32, %union.anon.3 }
%union.anon.3 = type { i32 }
%struct._xmlAttr = type { ptr, i32, ptr, ptr, ptr, ptr, ptr, ptr, ptr, ptr, i32, ptr }
%struct._dom_object = type { ptr, ptr, ptr, %struct._zend_object }
%struct._zend_object = type { %struct._zend_refcounted_h, i32, i32, ptr, ptr, ptr, [1 x %struct._zval_struct] }
%struct._php_libxml_ref_obj = type { ptr, ptr, %struct.php_libxml_cache_tag, ptr, ptr, i32, i16 }
%struct.php_libxml_cache_tag = type { i64 }

; Function Attrs: alwaysinline nounwind uwtable
define internal i64 @dom_minimum_modification_nr_since_parsing(ptr noundef %0) #6 {
  %2 = alloca ptr, align 8
  store ptr %0, ptr %2, align 8, !tbaa !69
  %3 = load ptr, ptr %2, align 8, !tbaa !69
  %4 = getelementptr inbounds nuw %struct._php_libxml_ref_obj, ptr %3, i32 0, i32 6
  %5 = load i16, ptr %4, align 4
  %6 = and i16 %5, 255
  %7 = zext i16 %6 to i32
  %8 = icmp eq i32 %7, 2
  %9 = select i1 %8, i32 1, i32 2
  %10 = sext i32 %9 to i64
  ret i64 %10
}

; Function Attrs: alwaysinline nounwind uwtable
define internal void @dom_mark_document_cache_as_modified_since_parsing(ptr noundef %0) #6 {
  %2 = alloca ptr, align 8
  store ptr %0, ptr %2, align 8, !tbaa !69
  %3 = load ptr, ptr %2, align 8, !tbaa !69
  %4 = icmp ne ptr %3, null
  br i1 %4, label %5, label %28

5:                                                ; preds = %1
  %6 = load ptr, ptr %2, align 8, !tbaa !69
  %7 = call i64 @dom_minimum_modification_nr_since_parsing(ptr noundef %6)
  %8 = add i64 %7, 1
  %9 = load ptr, ptr %2, align 8, !tbaa !69
  %10 = getelementptr inbounds nuw %struct._php_libxml_ref_obj, ptr %9, i32 0, i32 2
  %11 = getelementptr inbounds nuw %struct.php_libxml_cache_tag, ptr %10, i32 0, i32 0
  %12 = load i64, ptr %11, align 8, !tbaa !96
  %13 = icmp ugt i64 %8, %12
  br i1 %13, label %14, label %18

14:                                               ; preds = %5
  %15 = load ptr, ptr %2, align 8, !tbaa !69
  %16 = call i64 @dom_minimum_modification_nr_since_parsing(ptr noundef %15)
  %17 = add i64 %16, 1
  br label %23

18:                                               ; preds = %5
  %19 = load ptr, ptr %2, align 8, !tbaa !69
  %20 = getelementptr inbounds nuw %struct._php_libxml_ref_obj, ptr %19, i32 0, i32 2
  %21 = getelementptr inbounds nuw %struct.php_libxml_cache_tag, ptr %20, i32 0, i32 0
  %22 = load i64, ptr %21, align 8, !tbaa !96
  br label %23

23:                                               ; preds = %18, %14
  %24 = phi i64 [ %17, %14 ], [ %22, %18 ]
  %25 = load ptr, ptr %2, align 8, !tbaa !69
  %26 = getelementptr inbounds nuw %struct._php_libxml_ref_obj, ptr %25, i32 0, i32 2
  %27 = getelementptr inbounds nuw %struct.php_libxml_cache_tag, ptr %26, i32 0, i32 0
  store i64 %24, ptr %27, align 8, !tbaa !96
  br label %28

28:                                               ; preds = %23, %1
  ret void
}

; Function Attrs: alwaysinline nounwind uwtable
define internal void @dom_mark_ids_modified(ptr noundef %0) #6 {
  %2 = alloca ptr, align 8
  store ptr %0, ptr %2, align 8, !tbaa !69
  %3 = load ptr, ptr %2, align 8, !tbaa !69
  call void @dom_mark_document_cache_as_modified_since_parsing(ptr noundef %3)
  ret void
}

; Function Attrs: nounwind uwtable
define hidden void @dom_attr_value_will_change(ptr noundef %0, ptr noundef %1) #0 {
  %3 = alloca ptr, align 8
  %4 = alloca ptr, align 8
  store ptr %0, ptr %3, align 8, !tbaa !50
  store ptr %1, ptr %4, align 8, !tbaa !11
  %5 = load ptr, ptr %4, align 8, !tbaa !11
  %6 = getelementptr inbounds nuw %struct._xmlAttr, ptr %5, i32 0, i32 10
  %7 = load i32, ptr %6, align 8, !tbaa !67
  %8 = icmp eq i32 %7, 2
  br i1 %8, label %9, label %17

9:                                                ; preds = %2
  %10 = load ptr, ptr %4, align 8, !tbaa !11
  %11 = getelementptr inbounds nuw %struct._xmlAttr, ptr %10, i32 0, i32 8
  %12 = load ptr, ptr %11, align 8, !tbaa !68
  %13 = load ptr, ptr %4, align 8, !tbaa !11
  %14 = call i32 @xmlRemoveID(ptr noundef %12, ptr noundef %13)
  %15 = load ptr, ptr %4, align 8, !tbaa !11
  %16 = getelementptr inbounds nuw %struct._xmlAttr, ptr %15, i32 0, i32 10
  store i32 2, ptr %16, align 8, !tbaa !67
  br label %17

17:                                               ; preds = %9, %2
  %18 = load ptr, ptr %3, align 8, !tbaa !50
  %19 = getelementptr inbounds nuw %struct._dom_object, ptr %18, i32 0, i32 1
  %20 = load ptr, ptr %19, align 8, !tbaa !59
  call void @dom_mark_ids_modified(ptr noundef %20)
  ret void
}