; Function Attrs: nounwind uwtable
define hidden void @dom_attr_value_will_change(ptr noundef readonly captures(none) %0, ptr noundef %1) local_unnamed_addr #0 {
  %3 = getelementptr inbounds nuw i8, ptr %1, i64 80
  %4 = load i32, ptr %3, align 8, !tbaa !60
  %5 = icmp eq i32 %4, 2
  br i1 %5, label %6, label %10

6:                                                ; preds = %2
  %7 = getelementptr inbounds nuw i8, ptr %1, i64 64
  %8 = load ptr, ptr %7, align 8, !tbaa !61
  %9 = tail call i32 @xmlRemoveID(ptr noundef %8, ptr noundef nonnull %1) #8
  store i32 2, ptr %3, align 8, !tbaa !60
  br label %10

10:                                               ; preds = %6, %2
  %11 = getelementptr inbounds nuw i8, ptr %0, i64 8
  %12 = load ptr, ptr %11, align 8, !tbaa !45
  %.not.i = icmp eq ptr %12, null
  br i1 %.not.i, label %dom_mark_document_cache_as_modified_since_parsing.exit, label %13

13:                                               ; preds = %10
  %14 = getelementptr inbounds nuw i8, ptr %12, i64 44
  %15 = load i16, ptr %14, align 4
  %16 = and i16 %15, 255
  %17 = icmp eq i16 %16, 2
  %18 = select i1 %17, i64 1, i64 2
  %19 = getelementptr inbounds nuw i8, ptr %12, i64 16
  %20 = load i64, ptr %19, align 8, !tbaa !62
  %.not7.i = icmp ult i64 %18, %20
  %21 = add nuw nsw i64 %18, 1
  %spec.select = select i1 %.not7.i, i64 %20, i64 %21
  store i64 %spec.select, ptr %19, align 8, !tbaa !62
  br label %dom_mark_document_cache_as_modified_since_parsing.exit

dom_mark_document_cache_as_modified_since_parsing.exit: ; preds = %10, %13
  ret void
}